; Function Attrs: nounwind uwtable
define noundef i32 @EVP_PKEY_CTX_set0_dh_kdf_ukm(ptr noundef %0, ptr noundef %1, i32 noundef %2) local_unnamed_addr #0 {
  %4 = alloca [2 x %struct.ossl_param_st], align 16
  %5 = alloca %struct.ossl_param_st, align 8
  call void @llvm.lifetime.start.p0(i64 80, ptr nonnull %4) #4
  %6 = icmp slt i32 %2, 0
  br i1 %6, label %dh_param_derive_check.exit, label %7

7:                                                ; preds = %3
  %8 = icmp eq ptr %0, null
  br i1 %8, label %12, label %9

9:                                                ; preds = %7
  %10 = load i32, ptr %0, align 8, !tbaa !7
  %11 = and i32 %10, 2048
  %.not.i = icmp eq i32 %11, 0
  br i1 %.not.i, label %12, label %13

12:                                               ; preds = %9, %7
  tail call void @ERR_new() #4
  tail call void @ERR_set_debug(ptr noundef nonnull @.str.5, i32 noundef 37, ptr noundef nonnull @__func__.dh_param_derive_check) #4
  tail call void (i32, i32, ptr, ...) @ERR_set_error(i32 noundef 6, i32 noundef 147, ptr noundef null) #4
  br label %dh_param_derive_check.exit

13:                                               ; preds = %9
  %14 = getelementptr inbounds nuw i8, ptr %0, i64 32
  %15 = load ptr, ptr %14, align 8, !tbaa !20
  %16 = icmp eq ptr %15, null
  br i1 %16, label %17, label %select.unfold

17:                                               ; preds = %13
  %18 = getelementptr inbounds nuw i8, ptr %0, i64 120
  %19 = load ptr, ptr %18, align 8, !tbaa !21
  %20 = load i32, ptr %19, align 8, !tbaa !22
  switch i32 %20, label %dh_param_derive_check.exit [
    i32 920, label %select.unfold
    i32 28, label %select.unfold
  ]

select.unfold:                                    ; preds = %17, %17, %13
  %21 = getelementptr inbounds nuw i8, ptr %4, i64 40
  %22 = zext nneg i32 %2 to i64
  call void @OSSL_PARAM_construct_octet_string(ptr dead_on_unwind nonnull writable sret(%struct.ossl_param_st) align 8 %4, ptr noundef nonnull @.str.8, ptr noundef %1, i64 noundef %22) #4
  call void @llvm.lifetime.start.p0(i64 40, ptr nonnull %5) #4
  call void @OSSL_PARAM_construct_end(ptr dead_on_unwind nonnull writable sret(%struct.ossl_param_st) align 8 %5) #4
  call void @llvm.memcpy.p0.p0.i64(ptr noundef nonnull align 8 dereferenceable(40) %21, ptr noundef nonnull align 8 dereferenceable(40) %5, i64 40, i1 false), !tbaa.struct !24
  call void @llvm.lifetime.end.p0(i64 40, ptr nonnull %5) #4
  %23 = call i32 @evp_pkey_ctx_set_params_strict(ptr noundef nonnull %0, ptr noundef nonnull %4) #4
  switch i32 %23, label %dh_param_derive_check.exit [
    i32 -2, label %24
    i32 1, label %25
  ]

24:                                               ; preds = %select.unfold
  call void @ERR_new() #4
  call void @ERR_set_debug(ptr noundef nonnull @.str.5, i32 noundef 313, ptr noundef nonnull @__func__.EVP_PKEY_CTX_set0_dh_kdf_ukm) #4
  call void (i32, i32, ptr, ...) @ERR_set_error(i32 noundef 6, i32 noundef 147, ptr noundef null) #4
  br label %dh_param_derive_check.exit

25:                                               ; preds = %select.unfold
  call void @CRYPTO_free(ptr noundef %1, ptr noundef nonnull @.str.5, i32 noundef 315) #4
  br label %dh_param_derive_check.exit

dh_param_derive_check.exit:                       ; preds = %17, %12, %24, %25, %select.unfold, %3
  %.0 = phi i32 [ -1, %3 ], [ %23, %select.unfold ], [ 1, %25 ], [ -2, %24 ], [ -2, %12 ], [ -1, %17 ]
  call void @llvm.lifetime.end.p0(i64 80, ptr nonnull %4) #4
  ret i32 %.0
}